target datalayout = "e-m:e-p270:32:32-p271:32:32-p272:64:64-i64:64-i128:128-f80:128-n8:16:32:64-S128"
target triple = "x86_64-unknown-linux-gnu"

%struct.grpc_closure = type { %union.anon, ptr, ptr, %union.anon.3 }
%union.anon = type { ptr }
%union.anon.3 = type { i64 }
%"class.grpc_core::RefCountedPtr.17" = type { ptr }
%"class.grpc_core::Timestamp" = type { i64 }
%"class.grpc_core::SubchannelCall" = type { %"class.grpc_core::RefCountedPtr.17", ptr, %struct.grpc_closure, ptr, ptr, %"class.grpc_core::Timestamp" }

@.str.3 = private unnamed_addr constant [137 x i8] c"generated/home/dtcxzyw/WorkSpace/Projects/compilers/llvm-opt-benchmark/bench/grpc/grpc/src/core/ext/filters/client_channel/subchannel.cc\00", align 1
@.str.5 = private unnamed_addr constant [37 x i8] c"after_call_stack_destroy_ == nullptr\00", align 1
@.str.6 = private unnamed_addr constant [19 x i8] c"closure != nullptr\00", align 1

; Function Attrs: mustprogress uwtable
define void @_ZN9grpc_core14SubchannelCall24SetAfterCallStackDestroyEP12grpc_closure(ptr noundef nonnull align 8 dereferenceable(72) %this, ptr noundef %closure) #4 align 2 {
entry:
  %this.addr = alloca ptr, align 8
  %closure.addr = alloca ptr, align 8
  store ptr %this, ptr %this.addr, align 8
  store ptr %closure, ptr %closure.addr, align 8
  %this1 = load ptr, ptr %this.addr, align 8
  br label %do.body

do.body:                                          ; preds = %entry
  %after_call_stack_destroy_ = getelementptr inbounds %"class.grpc_core::SubchannelCall", ptr %this1, i32 0, i32 1
  %0 = load ptr, ptr %after_call_stack_destroy_, align 8
  %cmp = icmp eq ptr %0, null
  %lnot = xor i1 %cmp, true
  br i1 %lnot, label %if.then, label %if.end

if.then:                                          ; preds = %do.body
  call void @gpr_assertion_failed(ptr noundef @.str.3, i32 noundef 222, ptr noundef @.str.5) #20
  unreachable

if.end:                                           ; preds = %do.body
  br label %do.end

do.end:                                           ; preds = %if.end
  br label %do.body2

do.body2:                                         ; preds = %do.end
  %1 = load ptr, ptr %closure.addr, align 8
  %cmp3 = icmp ne ptr %1, null
  %lnot4 = xor i1 %cmp3, true
  br i1 %lnot4, label %if.then5, label %if.end6

if.then5:                                         ; preds = %do.body2
  call void @gpr_assertion_failed(ptr noundef @.str.3, i32 noundef 223, ptr noundef @.str.6) #20
  unreachable

if.end6:                                          ; preds = %do.body2
  br label %do.end7

do.end7:                                          ; preds = %if.end6
  %2 = load ptr, ptr %closure.addr, align 8
  %after_call_stack_destroy_8 = getelementptr inbounds %"class.grpc_core::SubchannelCall", ptr %this1, i32 0, i32 1
  store ptr %2, ptr %after_call_stack_destroy_8, align 8
  ret void
}