; Function Attrs: mustprogress uwtable
define void @_ZN9grpc_core14SubchannelCall24SetAfterCallStackDestroyEP12grpc_closure(ptr nocapture noundef nonnull align 8 dereferenceable(72) %this, ptr noundef %closure) local_unnamed_addr #3 align 2 {
entry:
  %after_call_stack_destroy_ = getelementptr inbounds i8, ptr %this, i64 8
  %0 = load ptr, ptr %after_call_stack_destroy_, align 8
  %cmp.not = icmp eq ptr %0, null
  br i1 %cmp.not, label %do.body2, label %if.then

if.then:                                          ; preds = %entry
  tail call void @gpr_assertion_failed(ptr noundef nonnull @.str.3, i32 noundef 222, ptr noundef nonnull @.str.5) #29
  unreachable

do.body2:                                         ; preds = %entry
  %cmp3.not = icmp eq ptr %closure, null
  br i1 %cmp3.not, label %if.then5, label %do.end7

if.then5:                                         ; preds = %do.body2
  tail call void @gpr_assertion_failed(ptr noundef nonnull @.str.3, i32 noundef 223, ptr noundef nonnull @.str.6) #29
  unreachable

do.end7:                                          ; preds = %do.body2
  store ptr %closure, ptr %after_call_stack_destroy_, align 8
  ret void
}